target datalayout = "e-m:e-p270:32:32-p271:32:32-p272:64:64-i64:64-i128:128-f80:128-n8:16:32:64-S128"
target triple = "x86_64-pc-linux-gnu"

%struct.lua_State = type { i8, i8, i8, i8, i8, i8, i8, ptr, ptr, ptr, ptr, ptr, ptr, ptr, ptr, i32, i32, i16, i16, i32, ptr, ptr, ptr, ptr, ptr }
%struct.global_State = type { %struct.stringtable, ptr, ptr, i8, i8, ptr, ptr, ptr, i64, i64, i32, i32, i32, [40 x ptr], [40 x ptr], ptr, ptr, ptr, [256 x i64], ptr, %struct.UpVal, [11 x ptr], [11 x ptr], [21 x ptr], %struct.lua_TValue, %struct.lua_TValue, i32, ptr, i64, [4 x i64], %struct.lua_Callbacks, %struct.lua_ExecutionCallbacks, [128 x ptr], [128 x ptr], [128 x ptr], %struct.GCStats }
%struct.stringtable = type { ptr, i32, i32 }
%struct.UpVal = type { i8, i8, i8, i8, ptr, %union.anon }
%union.anon = type { %struct.anon }
%struct.anon = type { ptr, ptr, ptr }
%struct.lua_TValue = type { %union.Value, [1 x i32], i32 }
%union.Value = type { ptr }
%struct.lua_Callbacks = type { ptr, ptr, ptr, ptr, ptr, ptr, ptr, ptr, ptr }
%struct.lua_ExecutionCallbacks = type { ptr, ptr, ptr, ptr, ptr, ptr, ptr }
%struct.GCStats = type { [32 x i32], i32, i32, i64, i64, i64, double, double, double }

; Function Attrs: mustprogress uwtable
define internal void @_ZL17shrinkbuffersfullP9lua_State(ptr noundef %0) #0 {
  %2 = alloca ptr, align 8
  %3 = alloca ptr, align 8
  %4 = alloca i32, align 4
  store ptr %0, ptr %2, align 8
  %5 = load ptr, ptr %2, align 8
  %6 = getelementptr inbounds %struct.lua_State, ptr %5, i32 0, i32 9
  %7 = load ptr, ptr %6, align 8
  store ptr %7, ptr %3, align 8
  %8 = load ptr, ptr %3, align 8
  %9 = getelementptr inbounds %struct.global_State, ptr %8, i32 0, i32 0
  %10 = getelementptr inbounds %struct.stringtable, ptr %9, i32 0, i32 2
  %11 = load i32, ptr %10, align 4
  store i32 %11, ptr %4, align 4
  br label %12

12:                                               ; preds = %25, %1
  %13 = load ptr, ptr %3, align 8
  %14 = getelementptr inbounds %struct.global_State, ptr %13, i32 0, i32 0
  %15 = getelementptr inbounds %struct.stringtable, ptr %14, i32 0, i32 1
  %16 = load i32, ptr %15, align 8
  %17 = load i32, ptr %4, align 4
  %18 = sdiv i32 %17, 4
  %19 = icmp ult i32 %16, %18
  br i1 %19, label %20, label %23

20:                                               ; preds = %12
  %21 = load i32, ptr %4, align 4
  %22 = icmp sgt i32 %21, 64
  br label %23

23:                                               ; preds = %20, %12
  %24 = phi i1 [ false, %12 ], [ %22, %20 ]
  br i1 %24, label %25, label %28

25:                                               ; preds = %23
  %26 = load i32, ptr %4, align 4
  %27 = sdiv i32 %26, 2
  store i32 %27, ptr %4, align 4
  br label %12, !llvm.loop !13

28:                                               ; preds = %23
  %29 = load i32, ptr %4, align 4
  %30 = load ptr, ptr %3, align 8
  %31 = getelementptr inbounds %struct.global_State, ptr %30, i32 0, i32 0
  %32 = getelementptr inbounds %struct.stringtable, ptr %31, i32 0, i32 2
  %33 = load i32, ptr %32, align 4
  %34 = icmp ne i32 %29, %33
  br i1 %34, label %35, label %38

35:                                               ; preds = %28
  %36 = load ptr, ptr %2, align 8
  %37 = load i32, ptr %4, align 4
  call void @_Z11luaS_resizeP9lua_Statei(ptr noundef %36, i32 noundef %37)
  br label %38

38:                                               ; preds = %35, %28
  ret void
}

; Function Attrs: mustprogress uwtable
define hidden void @_Z11luaC_fullgcP9lua_State(ptr noundef %0) #0 {
  %2 = alloca ptr, align 8
  %3 = alloca ptr, align 8
  %4 = alloca ptr, align 8
  %5 = alloca i64, align 8
  store ptr %0, ptr %2, align 8
  %6 = load ptr, ptr %2, align 8
  %7 = getelementptr inbounds %struct.lua_State, ptr %6, i32 0, i32 9
  %8 = load ptr, ptr %7, align 8
  store ptr %8, ptr %3, align 8
  %9 = load ptr, ptr %3, align 8
  %10 = getelementptr inbounds %struct.global_State, ptr %9, i32 0, i32 4
  %11 = load i8, ptr %10, align 1
  %12 = zext i8 %11 to i32
  %13 = icmp eq i32 %12, 1
  br i1 %13, label %26, label %14

14:                                               ; preds = %1
  %15 = load ptr, ptr %3, align 8
  %16 = getelementptr inbounds %struct.global_State, ptr %15, i32 0, i32 4
  %17 = load i8, ptr %16, align 1
  %18 = zext i8 %17 to i32
  %19 = icmp eq i32 %18, 2
  br i1 %19, label %26, label %20

20:                                               ; preds = %14
  %21 = load ptr, ptr %3, align 8
  %22 = getelementptr inbounds %struct.global_State, ptr %21, i32 0, i32 4
  %23 = load i8, ptr %22, align 1
  %24 = zext i8 %23 to i32
  %25 = icmp eq i32 %24, 3
  br i1 %25, label %26, label %40

26:                                               ; preds = %20, %14, %1
  %27 = load ptr, ptr %3, align 8
  %28 = getelementptr inbounds %struct.global_State, ptr %27, i32 0, i32 16
  %29 = load ptr, ptr %28, align 8
  %30 = load ptr, ptr %3, align 8
  %31 = getelementptr inbounds %struct.global_State, ptr %30, i32 0, i32 17
  store ptr %29, ptr %31, align 8
  %32 = load ptr, ptr %3, align 8
  %33 = getelementptr inbounds %struct.global_State, ptr %32, i32 0, i32 5
  store ptr null, ptr %33, align 8
  %34 = load ptr, ptr %3, align 8
  %35 = getelementptr inbounds %struct.global_State, ptr %34, i32 0, i32 6
  store ptr null, ptr %35, align 8
  %36 = load ptr, ptr %3, align 8
  %37 = getelementptr inbounds %struct.global_State, ptr %36, i32 0, i32 7
  store ptr null, ptr %37, align 8
  %38 = load ptr, ptr %3, align 8
  %39 = getelementptr inbounds %struct.global_State, ptr %38, i32 0, i32 4
  store i8 4, ptr %39, align 1
  br label %40

40:                                               ; preds = %26, %20
  br label %41

41:                                               ; preds = %47, %40
  %42 = load ptr, ptr %3, align 8
  %43 = getelementptr inbounds %struct.global_State, ptr %42, i32 0, i32 4
  %44 = load i8, ptr %43, align 1
  %45 = zext i8 %44 to i32
  %46 = icmp ne i32 %45, 0
  br i1 %46, label %47, label %50

47:                                               ; preds = %41
  %48 = load ptr, ptr %2, align 8
  %49 = call noundef i64 @_ZL6gcstepP9lua_Statem(ptr noundef %48, i64 noundef -1)
  br label %41, !llvm.loop !10

50:                                               ; preds = %41
  %51 = load ptr, ptr %3, align 8
  %52 = getelementptr inbounds %struct.global_State, ptr %51, i32 0, i32 20
  %53 = getelementptr inbounds %struct.UpVal, ptr %52, i32 0, i32 5
  %54 = getelementptr inbounds %struct.anon, ptr %53, i32 0, i32 1
  %55 = load ptr, ptr %54, align 8
  store ptr %55, ptr %4, align 8
  br label %56

56:                                               ; preds = %64, %50
  %57 = load ptr, ptr %4, align 8
  %58 = load ptr, ptr %3, align 8
  %59 = getelementptr inbounds %struct.global_State, ptr %58, i32 0, i32 20
  %60 = icmp ne ptr %57, %59
  br i1 %60, label %61, label %69

61:                                               ; preds = %56
  %62 = load ptr, ptr %4, align 8
  %63 = getelementptr inbounds %struct.UpVal, ptr %62, i32 0, i32 3
  store i8 0, ptr %63, align 1
  br label %64

64:                                               ; preds = %61
  %65 = load ptr, ptr %4, align 8
  %66 = getelementptr inbounds %struct.UpVal, ptr %65, i32 0, i32 5
  %67 = getelementptr inbounds %struct.anon, ptr %66, i32 0, i32 1
  %68 = load ptr, ptr %67, align 8
  store ptr %68, ptr %4, align 8
  br label %56, !llvm.loop !11

69:                                               ; preds = %56
  %70 = load ptr, ptr %2, align 8
  call void @_ZL8markrootP9lua_State(ptr noundef %70)
  br label %71

71:                                               ; preds = %77, %69
  %72 = load ptr, ptr %3, align 8
  %73 = getelementptr inbounds %struct.global_State, ptr %72, i32 0, i32 4
  %74 = load i8, ptr %73, align 1
  %75 = zext i8 %74 to i32
  %76 = icmp ne i32 %75, 0
  br i1 %76, label %77, label %80

77:                                               ; preds = %71
  %78 = load ptr, ptr %2, align 8
  %79 = call noundef i64 @_ZL6gcstepP9lua_Statem(ptr noundef %78, i64 noundef -1)
  br label %71, !llvm.loop !12

80:                                               ; preds = %71
  %81 = load ptr, ptr %2, align 8
  call void @_ZL17shrinkbuffersfullP9lua_State(ptr noundef %81)
  %82 = load ptr, ptr %3, align 8
  %83 = getelementptr inbounds %struct.global_State, ptr %82, i32 0, i32 9
  %84 = load i64, ptr %83, align 8
  %85 = udiv i64 %84, 100
  %86 = load ptr, ptr %3, align 8
  %87 = getelementptr inbounds %struct.global_State, ptr %86, i32 0, i32 10
  %88 = load i32, ptr %87, align 8
  %89 = sext i32 %88 to i64
  %90 = mul i64 %85, %89
  store i64 %90, ptr %5, align 8
  %91 = load ptr, ptr %3, align 8
  %92 = getelementptr inbounds %struct.global_State, ptr %91, i32 0, i32 9
  %93 = load i64, ptr %92, align 8
  %94 = load ptr, ptr %3, align 8
  %95 = getelementptr inbounds %struct.global_State, ptr %94, i32 0, i32 10
  %96 = load i32, ptr %95, align 8
  %97 = load ptr, ptr %3, align 8
  %98 = getelementptr inbounds %struct.global_State, ptr %97, i32 0, i32 11
  %99 = load i32, ptr %98, align 4
  %100 = mul nsw i32 %96, %99
  %101 = sdiv i32 %100, 100
  %102 = sub nsw i32 %101, 100
  %103 = sext i32 %102 to i64
  %104 = mul i64 %93, %103
  %105 = load ptr, ptr %3, align 8
  %106 = getelementptr inbounds %struct.global_State, ptr %105, i32 0, i32 11
  %107 = load i32, ptr %106, align 4
  %108 = sext i32 %107 to i64
  %109 = udiv i64 %104, %108
  %110 = load ptr, ptr %3, align 8
  %111 = getelementptr inbounds %struct.global_State, ptr %110, i32 0, i32 8
  store i64 %109, ptr %111, align 8
  %112 = load ptr, ptr %3, align 8
  %113 = getelementptr inbounds %struct.global_State, ptr %112, i32 0, i32 8
  %114 = load i64, ptr %113, align 8
  %115 = load ptr, ptr %3, align 8
  %116 = getelementptr inbounds %struct.global_State, ptr %115, i32 0, i32 9
  %117 = load i64, ptr %116, align 8
  %118 = icmp ult i64 %114, %117
  br i1 %118, label %119, label %125

119:                                              ; preds = %80
  %120 = load ptr, ptr %3, align 8
  %121 = getelementptr inbounds %struct.global_State, ptr %120, i32 0, i32 9
  %122 = load i64, ptr %121, align 8
  %123 = load ptr, ptr %3, align 8
  %124 = getelementptr inbounds %struct.global_State, ptr %123, i32 0, i32 8
  store i64 %122, ptr %124, align 8
  br label %125

125:                                              ; preds = %119, %80
  %126 = load i64, ptr %5, align 8
  %127 = load ptr, ptr %3, align 8
  %128 = getelementptr inbounds %struct.global_State, ptr %127, i32 0, i32 35
  %129 = getelementptr inbounds %struct.GCStats, ptr %128, i32 0, i32 5
  store i64 %126, ptr %129, align 8
  ret void
}