; Function Attrs: mustprogress uwtable
define hidden void @_Z11luaC_fullgcP9lua_State(ptr noundef %0) local_unnamed_addr #0 {
  %2 = getelementptr inbounds i8, ptr %0, i64 24
  %3 = load ptr, ptr %2, align 8
  %4 = getelementptr inbounds i8, ptr %3, i64 33
  %5 = load i8, ptr %4, align 1
  %.off = add i8 %5, -1
  %switch = icmp ult i8 %.off, 3
  br i1 %switch, label %.thread, label %10

.thread:                                          ; preds = %1
  %6 = getelementptr inbounds i8, ptr %3, i64 744
  %7 = load ptr, ptr %6, align 8
  %8 = getelementptr inbounds i8, ptr %3, i64 752
  store ptr %7, ptr %8, align 8
  %9 = getelementptr inbounds i8, ptr %3, i64 40
  tail call void @llvm.memset.p0.i64(ptr noundef nonnull align 8 dereferenceable(24) %9, i8 0, i64 24, i1 false)
  store i8 4, ptr %4, align 1
  br label %.lr.ph.preheader

10:                                               ; preds = %1
  %.not37 = icmp eq i8 %5, 0
  br i1 %.not37, label %._crit_edge, label %.lr.ph.preheader

.lr.ph.preheader:                                 ; preds = %.thread, %10
  br label %.lr.ph

.lr.ph:                                           ; preds = %.lr.ph.preheader, %.lr.ph
  %11 = tail call fastcc noundef i64 @_ZL6gcstepP9lua_Statem(ptr noundef %0, i64 noundef -1)
  %12 = load i8, ptr %4, align 1
  %.not = icmp eq i8 %12, 0
  br i1 %.not, label %._crit_edge, label %.lr.ph, !llvm.loop !17

._crit_edge:                                      ; preds = %.lr.ph, %10
  %13 = getelementptr inbounds i8, ptr %3, i64 2816
  %14 = getelementptr inbounds i8, ptr %3, i64 2840
  %.038 = load ptr, ptr %14, align 8
  %.not3539 = icmp eq ptr %.038, %13
  br i1 %.not3539, label %._crit_edge43, label %.lr.ph42

.lr.ph42:                                         ; preds = %._crit_edge, %.lr.ph42
  %.040 = phi ptr [ %.0, %.lr.ph42 ], [ %.038, %._crit_edge ]
  %15 = getelementptr inbounds i8, ptr %.040, i64 3
  store i8 0, ptr %15, align 1
  %16 = getelementptr inbounds i8, ptr %.040, i64 24
  %.0 = load ptr, ptr %16, align 8
  %.not35 = icmp eq ptr %.0, %13
  br i1 %.not35, label %._crit_edge43, label %.lr.ph42, !llvm.loop !18

._crit_edge43:                                    ; preds = %.lr.ph42, %._crit_edge
  tail call fastcc void @_ZL8markrootP9lua_State(ptr noundef %0)
  %17 = load i8, ptr %4, align 1
  %.not3644 = icmp eq i8 %17, 0
  br i1 %.not3644, label %._crit_edge47, label %.lr.ph46

.lr.ph46:                                         ; preds = %._crit_edge43, %.lr.ph46
  %18 = tail call fastcc noundef i64 @_ZL6gcstepP9lua_Statem(ptr noundef %0, i64 noundef -1)
  %19 = load i8, ptr %4, align 1
  %.not36 = icmp eq i8 %19, 0
  br i1 %.not36, label %._crit_edge47, label %.lr.ph46, !llvm.loop !19

._crit_edge47:                                    ; preds = %.lr.ph46, %._crit_edge43
  %20 = load ptr, ptr %2, align 8
  %21 = getelementptr inbounds i8, ptr %20, i64 12
  %22 = load i32, ptr %21, align 4
  %23 = getelementptr inbounds i8, ptr %20, i64 8
  %24 = load i32, ptr %23, align 8
  br label %25

25:                                               ; preds = %25, %._crit_edge47
  %.0.i = phi i32 [ %22, %._crit_edge47 ], [ %30, %25 ]
  %26 = sdiv i32 %.0.i, 4
  %27 = icmp ult i32 %24, %26
  %28 = icmp sgt i32 %.0.i, 64
  %29 = and i1 %28, %27
  %30 = lshr i32 %.0.i, 1
  br i1 %29, label %25, label %31, !llvm.loop !20

31:                                               ; preds = %25
  %.not.i = icmp eq i32 %.0.i, %22
  br i1 %.not.i, label %_ZL17shrinkbuffersfullP9lua_State.exit, label %32

32:                                               ; preds = %31
  tail call void @_Z11luaS_resizeP9lua_Statei(ptr noundef %0, i32 noundef %.0.i)
  br label %_ZL17shrinkbuffersfullP9lua_State.exit

_ZL17shrinkbuffersfullP9lua_State.exit:           ; preds = %31, %32
  %33 = getelementptr inbounds i8, ptr %3, i64 72
  %34 = load i64, ptr %33, align 8
  %35 = getelementptr inbounds i8, ptr %3, i64 80
  %36 = load i32, ptr %35, align 8
  %37 = getelementptr inbounds i8, ptr %3, i64 84
  %38 = load i32, ptr %37, align 4
  %39 = mul nsw i32 %38, %36
  %40 = sdiv i32 %39, 100
  %41 = add nsw i32 %40, -100
  %42 = sext i32 %41 to i64
  %43 = mul i64 %34, %42
  %44 = sext i32 %38 to i64
  %45 = udiv i64 %43, %44
  %46 = getelementptr inbounds i8, ptr %3, i64 64
  %spec.store.select = tail call i64 @llvm.umax.i64(i64 %45, i64 %34)
  store i64 %spec.store.select, ptr %46, align 8
  %47 = udiv i64 %34, 100
  %48 = sext i32 %36 to i64
  %49 = mul i64 %47, %48
  %50 = getelementptr inbounds i8, ptr %3, i64 6640
  store i64 %49, ptr %50, align 8
  ret void
}